; Function Attrs: mustprogress uwtable
define void @_ZN10MainWindow11meshRemovedEi(ptr nocapture noundef nonnull readonly align 8 dereferenceable(1376) %0, i32 noundef %1) local_unnamed_addr #9 align 2 {
  %3 = getelementptr inbounds i8, ptr %0, i64 1368
  %4 = load ptr, ptr %3, align 8
  %.not = icmp eq ptr %4, null
  br i1 %.not, label %9, label %5

5:                                                ; preds = %2
  %6 = getelementptr inbounds i8, ptr %4, i64 240
  %7 = load ptr, ptr %6, align 8
  %.not6 = icmp eq ptr %7, null
  br i1 %.not6, label %9, label %8

8:                                                ; preds = %5
  tail call void @_ZN26MLSceneGLSharedDataContext11meshRemovedEi(ptr noundef nonnull align 8 dereferenceable(168) %7, i32 noundef %1)
  br label %9

9:                                                ; preds = %5, %8, %2
  tail call void @_ZN10MainWindow17updateLayerDialogEv(ptr noundef nonnull align 8 dereferenceable(1376) %0)
  ret void
}